; Function Attrs: mustprogress nounwind uwtable
define internal fastcc void @_ZN7rocksdb12_GLOBAL__N_116BackupEngineImpl18CopyOrCreateResultD2Ev(ptr noundef nonnull align 8 dereferenceable(122) %this) unnamed_addr #0 align 2 personality ptr @__gxx_personality_v0 {
invoke.cont:
  %state_.i.i = getelementptr inbounds i8, ptr %this, i64 112
  %0 = load ptr, ptr %state_.i.i, align 8
  %cmp.not.i.i.i = icmp eq ptr %0, null
  br i1 %cmp.not.i.i.i, label %_ZN7rocksdb8IOStatusD2Ev.exit, label %_ZNKSt14default_deleteIA_KcEclIS0_EENSt9enable_ifIXsr14is_convertibleIPA_T_PS1_EE5valueEvE4typeEPS5_.exit.i.i.i

_ZNKSt14default_deleteIA_KcEclIS0_EENSt9enable_ifIXsr14is_convertibleIPA_T_PS1_EE5valueEvE4typeEPS5_.exit.i.i.i: ; preds = %invoke.cont
  tail call void @_ZdaPv(ptr noundef nonnull %0) #31
  br label %_ZN7rocksdb8IOStatusD2Ev.exit

_ZN7rocksdb8IOStatusD2Ev.exit:                    ; preds = %invoke.cont, %_ZNKSt14default_deleteIA_KcEclIS0_EENSt9enable_ifIXsr14is_convertibleIPA_T_PS1_EE5valueEvE4typeEPS5_.exit.i.i.i
  store ptr null, ptr %state_.i.i, align 8
  %db_session_id = getelementptr inbounds i8, ptr %this, i64 72
  tail call void @_ZNSt7__cxx1112basic_stringIcSt11char_traitsIcESaIcEED1Ev(ptr noundef nonnull align 8 dereferenceable(32) %db_session_id) #33
  %db_id = getelementptr inbounds i8, ptr %this, i64 40
  tail call void @_ZNSt7__cxx1112basic_stringIcSt11char_traitsIcESaIcEED1Ev(ptr noundef nonnull align 8 dereferenceable(32) %db_id) #33
  %checksum_hex = getelementptr inbounds i8, ptr %this, i64 8
  tail call void @_ZNSt7__cxx1112basic_stringIcSt11char_traitsIcESaIcEED1Ev(ptr noundef nonnull align 8 dereferenceable(32) %checksum_hex) #33
  ret void
}